; Function Attrs: mustprogress nounwind uwtable
define dso_local noundef i32 @_ZN4node9inspector12ServerSocket10DetectPortEv(ptr noundef nonnull align 8 dereferenceable(260) %this) local_unnamed_addr #0 align 2 {
entry:
  %addr = alloca %struct.sockaddr_storage, align 8
  %len = alloca i32, align 4
  store i32 128, ptr %len, align 4
  %call = call i32 @uv_tcp_getsockname(ptr noundef nonnull %this, ptr noundef nonnull %addr, ptr noundef nonnull %len) #19
  %cmp.not = icmp eq i32 %call, 0
  br i1 %cmp.not, label %if.end, label %return

if.end:                                           ; preds = %entry
  %sin6_port = getelementptr inbounds i8, ptr %addr, i64 2
  %0 = load i16, ptr %sin6_port, align 2
  %call8 = call zeroext i16 @ntohs(i16 noundef zeroext %0) #24
  %conv9 = zext i16 %call8 to i32
  %port_ = getelementptr inbounds i8, ptr %this, i64 256
  store i32 %conv9, ptr %port_, align 8
  br label %return

return:                                           ; preds = %entry, %if.end
  ret i32 %call
}